; ModuleID = '39/1707.c'
source_filename = "39/1707.c"
target datalayout = "e-m:e-p270:32:32-p271:32:32-p272:64:64-i64:64-f80:128-n8:16:32:64-S128"
target triple = "x86_64-pc-linux-gnu"

@.str = private unnamed_addr constant [3 x i8] c"%d\00", align 1
@.str.1 = private unnamed_addr constant [3 x i8] c"%s\00", align 1
@.str.2 = private unnamed_addr constant [6 x i8] c"%d%d \00", align 1
@.str.3 = private unnamed_addr constant [6 x i8] c"%c %c\00", align 1
@.str.4 = private unnamed_addr constant [4 x i8] c"%s\0A\00", align 1
@.str.5 = private unnamed_addr constant [4 x i8] c"%d\0A\00", align 1

; Function Attrs: noinline nounwind uwtable
define dso_local i32 @main() #0 {
  %1 = alloca i32, align 4
  %2 = alloca [20 x i8], align 16
  %3 = alloca [20 x i8], align 16
  %4 = alloca i8, align 1
  %5 = alloca i8, align 1
  %6 = alloca i32, align 4
  %7 = alloca i32, align 4
  %8 = alloca i32, align 4
  %9 = alloca i32, align 4
  %10 = alloca i32, align 4
  %11 = alloca i32, align 4
  %12 = alloca i32, align 4
  %13 = alloca i32, align 4
  store i32 0, i32* %1, align 4
  store i32 0, i32* %12, align 4
  store i32 0, i32* %13, align 4
  %14 = call i32 (i8*, ...) @__isoc99_scanf(i8* getelementptr inbounds ([3 x i8], [3 x i8]* @.str, i64 0, i64 0), i32* %6)
  store i32 0, i32* %10, align 4
  br label %15

15:                                               ; preds = %81, %0
  %16 = load i32, i32* %10, align 4
  %17 = load i32, i32* %6, align 4
  %18 = icmp slt i32 %16, %17
  br i1 %18, label %19, label %84

19:                                               ; preds = %15
  %20 = getelementptr inbounds [20 x i8], [20 x i8]* %2, i64 0, i64 0
  %21 = call i32 (i8*, ...) @__isoc99_scanf(i8* getelementptr inbounds ([3 x i8], [3 x i8]* @.str.1, i64 0, i64 0), i8* %20)
  %22 = call i32 (i8*, ...) @__isoc99_scanf(i8* getelementptr inbounds ([6 x i8], [6 x i8]* @.str.2, i64 0, i64 0), i32* %7, i32* %8)
  %23 = call i32 (i8*, ...) @__isoc99_scanf(i8* getelementptr inbounds ([6 x i8], [6 x i8]* @.str.3, i64 0, i64 0), i8* %4, i8* %5)
  %24 = call i32 (i8*, ...) @__isoc99_scanf(i8* getelementptr inbounds ([3 x i8], [3 x i8]* @.str, i64 0, i64 0), i32* %9)
  store i32 0, i32* %11, align 4
  %25 = load i32, i32* %7, align 4
  %26 = icmp sgt i32 %25, 80
  br i1 %26, label %27, label %33

27:                                               ; preds = %19
  %28 = load i32, i32* %9, align 4
  %29 = icmp sge i32 %28, 1
  br i1 %29, label %30, label %33

30:                                               ; preds = %27
  %31 = load i32, i32* %11, align 4
  %32 = add nsw i32 %31, 8000
  store i32 %32, i32* %11, align 4
  br label %33

33:                                               ; preds = %30, %27, %19
  %34 = load i32, i32* %7, align 4
  %35 = icmp sgt i32 %34, 85
  br i1 %35, label %36, label %42

36:                                               ; preds = %33
  %37 = load i32, i32* %8, align 4
  %38 = icmp sgt i32 %37, 80
  br i1 %38, label %39, label %42

39:                                               ; preds = %36
  %40 = load i32, i32* %11, align 4
  %41 = add nsw i32 %40, 4000
  store i32 %41, i32* %11, align 4
  br label %42

42:                                               ; preds = %39, %36, %33
  %43 = load i32, i32* %7, align 4
  %44 = icmp sgt i32 %43, 90
  br i1 %44, label %45, label %48

45:                                               ; preds = %42
  %46 = load i32, i32* %11, align 4
  %47 = add nsw i32 %46, 2000
  store i32 %47, i32* %11, align 4
  br label %48

48:                                               ; preds = %45, %42
  %49 = load i32, i32* %7, align 4
  %50 = icmp sgt i32 %49, 85
  br i1 %50, label %51, label %58

51:                                               ; preds = %48
  %52 = load i8, i8* %5, align 1
  %53 = sext i8 %52 to i32
  %54 = icmp eq i32 %53, 89
  br i1 %54, label %55, label %58

55:                                               ; preds = %51
  %56 = load i32, i32* %11, align 4
  %57 = add nsw i32 %56, 1000
  store i32 %57, i32* %11, align 4
  br label %58

58:                                               ; preds = %55, %51, %48
  %59 = load i32, i32* %8, align 4
  %60 = icmp sgt i32 %59, 80
  br i1 %60, label %61, label %68

61:                                               ; preds = %58
  %62 = load i8, i8* %4, align 1
  %63 = sext i8 %62 to i32
  %64 = icmp eq i32 %63, 89
  br i1 %64, label %65, label %68

65:                                               ; preds = %61
  %66 = load i32, i32* %11, align 4
  %67 = add nsw i32 %66, 850
  store i32 %67, i32* %11, align 4
  br label %68

68:                                               ; preds = %65, %61, %58
  %69 = load i32, i32* %11, align 4
  %70 = load i32, i32* %13, align 4
  %71 = add nsw i32 %70, %69
  store i32 %71, i32* %13, align 4
  %72 = load i32, i32* %11, align 4
  %73 = load i32, i32* %12, align 4
  %74 = icmp sgt i32 %72, %73
  br i1 %74, label %75, label %80

75:                                               ; preds = %68
  %76 = getelementptr inbounds [20 x i8], [20 x i8]* %3, i64 0, i64 0
  %77 = getelementptr inbounds [20 x i8], [20 x i8]* %2, i64 0, i64 0
  %78 = call i8* @strcpy(i8* %76, i8* %77) #3
  %79 = load i32, i32* %11, align 4
  store i32 %79, i32* %12, align 4
  br label %80

80:                                               ; preds = %75, %68
  br label %81

81:                                               ; preds = %80
  %82 = load i32, i32* %10, align 4
  %83 = add nsw i32 %82, 1
  store i32 %83, i32* %10, align 4
  br label %15

84:                                               ; preds = %15
  %85 = getelementptr inbounds [20 x i8], [20 x i8]* %3, i64 0, i64 0
  %86 = call i32 (i8*, ...) @printf(i8* getelementptr inbounds ([4 x i8], [4 x i8]* @.str.4, i64 0, i64 0), i8* %85)
  %87 = load i32, i32* %12, align 4
  %88 = call i32 (i8*, ...) @printf(i8* getelementptr inbounds ([4 x i8], [4 x i8]* @.str.5, i64 0, i64 0), i32 %87)
  %89 = load i32, i32* %13, align 4
  %90 = call i32 (i8*, ...) @printf(i8* getelementptr inbounds ([4 x i8], [4 x i8]* @.str.5, i64 0, i64 0), i32 %89)
  ret i32 0
}

declare dso_local i32 @__isoc99_scanf(i8*, ...) #1

; Function Attrs: nounwind
declare dso_local i8* @strcpy(i8*, i8*) #2

declare dso_local i32 @printf(i8*, ...) #1


!llvm.module.flags = !{!0}
!llvm.ident = !{!1}

!0 = !{i32 1, !"wchar_size", i32 4}
!1 = !{!"clang version 10.0.0-4ubuntu1 "}
