; ModuleID = 'source-C-CXX/38/1707.c'
source_filename = "source-C-CXX/38/1707.c"
target datalayout = "e-m:e-p270:32:32-p271:32:32-p272:64:64-i64:64-f80:128-n8:16:32:64-S128"
target triple = "x86_64-pc-linux-gnu"

@.str = private unnamed_addr constant [3 x i8] c"%d\00", align 1
@.str.1 = private unnamed_addr constant [3 x i8] c"%s\00", align 1
@.str.2 = private unnamed_addr constant [6 x i8] c"%d%d \00", align 1
@.str.3 = private unnamed_addr constant [6 x i8] c"%c %c\00", align 1
@.str.5 = private unnamed_addr constant [4 x i8] c"%d\0A\00", align 1

; Function Attrs: nofree nounwind sspstrong uwtable
define dso_local i32 @main() local_unnamed_addr #0 {
  %1 = alloca [20 x i8], align 16
  %2 = alloca [20 x i8], align 16
  %3 = alloca i8, align 1
  %4 = alloca i8, align 1
  %5 = alloca i32, align 4
  %6 = alloca i32, align 4
  %7 = alloca i32, align 4
  %8 = alloca i32, align 4
  %9 = getelementptr inbounds [20 x i8], [20 x i8]* %1, i64 0, i64 0
  call void @llvm.lifetime.start.p0i8(i64 20, i8* nonnull %9) #5
  %10 = getelementptr inbounds [20 x i8], [20 x i8]* %2, i64 0, i64 0
  call void @llvm.lifetime.start.p0i8(i64 20, i8* nonnull %10) #5
  call void @llvm.lifetime.start.p0i8(i64 1, i8* nonnull %3) #5
  call void @llvm.lifetime.start.p0i8(i64 1, i8* nonnull %4) #5
  %11 = bitcast i32* %5 to i8*
  call void @llvm.lifetime.start.p0i8(i64 4, i8* nonnull %11) #5
  %12 = bitcast i32* %6 to i8*
  call void @llvm.lifetime.start.p0i8(i64 4, i8* nonnull %12) #5
  %13 = bitcast i32* %7 to i8*
  call void @llvm.lifetime.start.p0i8(i64 4, i8* nonnull %13) #5
  %14 = bitcast i32* %8 to i8*
  call void @llvm.lifetime.start.p0i8(i64 4, i8* nonnull %14) #5
  %15 = call i32 (i8*, ...) @__isoc99_scanf(i8* getelementptr inbounds ([3 x i8], [3 x i8]* @.str, i64 0, i64 0), i32* nonnull %5)
  %16 = load i32, i32* %5, align 4, !tbaa !5
  %17 = icmp sgt i32 %16, 0
  br i1 %17, label %18, label %60

18:                                               ; preds = %0, %55
  %19 = phi i32 [ %51, %55 ], [ 0, %0 ]
  %20 = phi i32 [ %56, %55 ], [ 0, %0 ]
  %21 = phi i32 [ %57, %55 ], [ 0, %0 ]
  %22 = call i32 (i8*, ...) @__isoc99_scanf(i8* getelementptr inbounds ([3 x i8], [3 x i8]* @.str.1, i64 0, i64 0), i8* nonnull %9)
  %23 = call i32 (i8*, ...) @__isoc99_scanf(i8* getelementptr inbounds ([6 x i8], [6 x i8]* @.str.2, i64 0, i64 0), i32* nonnull %6, i32* nonnull %7)
  %24 = call i32 (i8*, ...) @__isoc99_scanf(i8* getelementptr inbounds ([6 x i8], [6 x i8]* @.str.3, i64 0, i64 0), i8* nonnull %3, i8* nonnull %4)
  %25 = call i32 (i8*, ...) @__isoc99_scanf(i8* getelementptr inbounds ([3 x i8], [3 x i8]* @.str, i64 0, i64 0), i32* nonnull %8)
  %26 = load i32, i32* %6, align 4, !tbaa !5
  %27 = icmp sgt i32 %26, 80
  %28 = load i32, i32* %8, align 4
  %29 = icmp sgt i32 %28, 0
  %30 = select i1 %27, i1 %29, i1 false
  %31 = select i1 %30, i32 8000, i32 0
  %32 = icmp sgt i32 %26, 85
  %33 = load i32, i32* %7, align 4
  %34 = icmp sgt i32 %33, 80
  %35 = select i1 %32, i1 %34, i1 false
  %36 = add nuw nsw i32 %31, 4000
  %37 = select i1 %35, i32 %36, i32 %31
  %38 = icmp sgt i32 %26, 90
  %39 = add nuw nsw i32 %37, 2000
  %40 = select i1 %38, i32 %39, i32 %37
  %41 = load i8, i8* %4, align 1
  %42 = icmp eq i8 %41, 89
  %43 = select i1 %32, i1 %42, i1 false
  %44 = add nuw nsw i32 %40, 1000
  %45 = select i1 %43, i32 %44, i32 %40
  %46 = load i8, i8* %3, align 1
  %47 = icmp eq i8 %46, 89
  %48 = select i1 %34, i1 %47, i1 false
  %49 = add nuw nsw i32 %45, 850
  %50 = select i1 %48, i32 %49, i32 %45
  %51 = add nsw i32 %50, %19
  %52 = icmp sgt i32 %50, %20
  br i1 %52, label %53, label %55

53:                                               ; preds = %18
  %54 = call i8* @strcpy(i8* noundef nonnull %10, i8* noundef nonnull %9) #5
  br label %55

55:                                               ; preds = %18, %53
  %56 = phi i32 [ %50, %53 ], [ %20, %18 ]
  %57 = add nuw nsw i32 %21, 1
  %58 = load i32, i32* %5, align 4, !tbaa !5
  %59 = icmp slt i32 %57, %58
  br i1 %59, label %18, label %60, !llvm.loop !9

60:                                               ; preds = %55, %0
  %61 = phi i32 [ 0, %0 ], [ %56, %55 ]
  %62 = phi i32 [ 0, %0 ], [ %51, %55 ]
  %63 = call i32 @puts(i8* nonnull %10)
  %64 = call i32 (i8*, ...) @printf(i8* nonnull dereferenceable(1) getelementptr inbounds ([4 x i8], [4 x i8]* @.str.5, i64 0, i64 0), i32 %61)
  %65 = call i32 (i8*, ...) @printf(i8* nonnull dereferenceable(1) getelementptr inbounds ([4 x i8], [4 x i8]* @.str.5, i64 0, i64 0), i32 %62)
  call void @llvm.lifetime.end.p0i8(i64 4, i8* nonnull %14) #5
  call void @llvm.lifetime.end.p0i8(i64 4, i8* nonnull %13) #5
  call void @llvm.lifetime.end.p0i8(i64 4, i8* nonnull %12) #5
  call void @llvm.lifetime.end.p0i8(i64 4, i8* nonnull %11) #5
  call void @llvm.lifetime.end.p0i8(i64 1, i8* nonnull %4) #5
  call void @llvm.lifetime.end.p0i8(i64 1, i8* nonnull %3) #5
  call void @llvm.lifetime.end.p0i8(i64 20, i8* nonnull %10) #5
  call void @llvm.lifetime.end.p0i8(i64 20, i8* nonnull %9) #5
  ret i32 0
}

; Function Attrs: argmemonly mustprogress nofree nosync nounwind willreturn
declare void @llvm.lifetime.start.p0i8(i64 immarg, i8* nocapture) #1

; Function Attrs: nofree nounwind
declare noundef i32 @__isoc99_scanf(i8* nocapture noundef readonly, ...) local_unnamed_addr #2

; Function Attrs: argmemonly mustprogress nofree nounwind willreturn
declare i8* @strcpy(i8* noalias returned writeonly, i8* noalias nocapture readonly) local_unnamed_addr #3

; Function Attrs: nofree nounwind
declare noundef i32 @printf(i8* nocapture noundef readonly, ...) local_unnamed_addr #2

; Function Attrs: argmemonly mustprogress nofree nosync nounwind willreturn
declare void @llvm.lifetime.end.p0i8(i64 immarg, i8* nocapture) #1

; Function Attrs: nofree nounwind
declare noundef i32 @puts(i8* nocapture noundef readonly) local_unnamed_addr #4


!llvm.module.flags = !{!0, !1, !2, !3}
!llvm.ident = !{!4}

!0 = !{i32 1, !"wchar_size", i32 4}
!1 = !{i32 7, !"PIC Level", i32 2}
!2 = !{i32 7, !"PIE Level", i32 2}
!3 = !{i32 7, !"uwtable", i32 1}
!4 = !{!"clang version 13.0.0"}
!5 = !{!6, !6, i64 0}
!6 = !{!"int", !7, i64 0}
!7 = !{!"omnipotent char", !8, i64 0}
!8 = !{!"Simple C/C++ TBAA"}
!9 = distinct !{!9, !10}
!10 = !{!"llvm.loop.mustprogress"}
